target datalayout = "e-m:e-p270:32:32-p271:32:32-p272:64:64-i64:64-i128:128-f80:128-n8:16:32:64-S128"
target triple = "x86_64-unknown-linux-gnu"

%struct.QIOChannelTLS = type { %struct.QIOChannel, ptr, ptr, i32, i32 }
%struct.QIOChannel = type { %struct.Object, i32, ptr, ptr, ptr, ptr, ptr, i8 }
%struct.Object = type { ptr, ptr, ptr, i32, ptr }
%struct.timeval = type { i64, i64 }

@.str = private unnamed_addr constant [16 x i8] c"qio-channel-tls\00", align 1
@.str.1 = private unnamed_addr constant [103 x i8] c"/home/dtcxzyw/WorkSpace/Projects/compilers/llvm-opt-benchmark/bench/qemu/qemu/include/io/channel-tls.h\00", align 1
@__func__.QIO_CHANNEL_TLS = private unnamed_addr constant [16 x i8] c"QIO_CHANNEL_TLS\00", align 1
@.str.2 = private unnamed_addr constant [12 x i8] c"qio-channel\00", align 1
@.str.3 = private unnamed_addr constant [99 x i8] c"/home/dtcxzyw/WorkSpace/Projects/compilers/llvm-opt-benchmark/bench/qemu/qemu/include/io/channel.h\00", align 1
@__func__.QIO_CHANNEL = private unnamed_addr constant [12 x i8] c"QIO_CHANNEL\00", align 1
@trace_events_enabled_count = external global i32, align 4
@message_with_timestamp = external global i8, align 1
@qemu_loglevel = external global i32, align 4
@_TRACE_QIO_CHANNEL_TLS_NEW_CLIENT_DSTATE = external global i16, align 2
@.str.6 = private unnamed_addr constant [94 x i8] c"%d@%zu.%06zu:qio_channel_tls_new_client TLS new client ioc=%p master=%p creds=%p hostname=%s\0A\00", align 1
@.str.7 = private unnamed_addr constant [81 x i8] c"qio_channel_tls_new_client TLS new client ioc=%p master=%p creds=%p hostname=%s\0A\00", align 1

; Function Attrs: nounwind sspstrong uwtable
define internal zeroext i1 @qemu_loglevel_mask(i32 noundef %mask) #0 {
entry:
  %mask.addr = alloca i32, align 4
  store i32 %mask, ptr %mask.addr, align 4
  %0 = load i32, ptr @qemu_loglevel, align 4
  %1 = load i32, ptr %mask.addr, align 4
  %and = and i32 %0, %1
  %cmp = icmp ne i32 %and, 0
  ret i1 %cmp
}

; Function Attrs: nounwind sspstrong uwtable
define internal void @_nocheck__trace_qio_channel_tls_new_client(ptr noundef %ioc, ptr noundef %master, ptr noundef %creds, ptr noundef %hostname) #0 {
entry:
  %ioc.addr = alloca ptr, align 8
  %master.addr = alloca ptr, align 8
  %creds.addr = alloca ptr, align 8
  %hostname.addr = alloca ptr, align 8
  %_now = alloca %struct.timeval, align 8
  store ptr %ioc, ptr %ioc.addr, align 8
  store ptr %master, ptr %master.addr, align 8
  store ptr %creds, ptr %creds.addr, align 8
  store ptr %hostname, ptr %hostname.addr, align 8
  %0 = load i32, ptr @trace_events_enabled_count, align 4
  %tobool = icmp ne i32 %0, 0
  %lnot = xor i1 %tobool, true
  %lnot1 = xor i1 %lnot, true
  %lnot.ext = zext i1 %lnot1 to i32
  %conv = sext i32 %lnot.ext to i64
  %tobool2 = icmp ne i64 %conv, 0
  br i1 %tobool2, label %land.lhs.true, label %if.end11

land.lhs.true:                                    ; preds = %entry
  %1 = load i16, ptr @_TRACE_QIO_CHANNEL_TLS_NEW_CLIENT_DSTATE, align 2
  %conv3 = zext i16 %1 to i32
  %tobool4 = icmp ne i32 %conv3, 0
  br i1 %tobool4, label %land.lhs.true5, label %if.end11

land.lhs.true5:                                   ; preds = %land.lhs.true
  %call = call zeroext i1 @qemu_loglevel_mask(i32 noundef 32768)
  br i1 %call, label %if.then, label %if.end11

if.then:                                          ; preds = %land.lhs.true5
  %2 = load i8, ptr @message_with_timestamp, align 1
  %tobool7 = trunc i8 %2 to i1
  br i1 %tobool7, label %if.then8, label %if.else

if.then8:                                         ; preds = %if.then
  %call9 = call i32 @gettimeofday(ptr noundef %_now, ptr noundef null) #8
  %call10 = call i32 @qemu_get_thread_id()
  %tv_sec = getelementptr inbounds %struct.timeval, ptr %_now, i32 0, i32 0
  %3 = load i64, ptr %tv_sec, align 8
  %tv_usec = getelementptr inbounds %struct.timeval, ptr %_now, i32 0, i32 1
  %4 = load i64, ptr %tv_usec, align 8
  %5 = load ptr, ptr %ioc.addr, align 8
  %6 = load ptr, ptr %master.addr, align 8
  %7 = load ptr, ptr %creds.addr, align 8
  %8 = load ptr, ptr %hostname.addr, align 8
  call void (ptr, ...) @qemu_log(ptr noundef @.str.6, i32 noundef %call10, i64 noundef %3, i64 noundef %4, ptr noundef %5, ptr noundef %6, ptr noundef %7, ptr noundef %8)
  br label %if.end

if.else:                                          ; preds = %if.then
  %9 = load ptr, ptr %ioc.addr, align 8
  %10 = load ptr, ptr %master.addr, align 8
  %11 = load ptr, ptr %creds.addr, align 8
  %12 = load ptr, ptr %hostname.addr, align 8
  call void (ptr, ...) @qemu_log(ptr noundef @.str.7, ptr noundef %9, ptr noundef %10, ptr noundef %11, ptr noundef %12)
  br label %if.end

if.end:                                           ; preds = %if.else, %if.then8
  br label %if.end11

if.end11:                                         ; preds = %if.end, %land.lhs.true5, %land.lhs.true, %entry
  ret void
}

; Function Attrs: nounwind sspstrong uwtable
define internal void @trace_qio_channel_tls_new_client(ptr noundef %ioc, ptr noundef %master, ptr noundef %creds, ptr noundef %hostname) #0 {
entry:
  %ioc.addr = alloca ptr, align 8
  %master.addr = alloca ptr, align 8
  %creds.addr = alloca ptr, align 8
  %hostname.addr = alloca ptr, align 8
  store ptr %ioc, ptr %ioc.addr, align 8
  store ptr %master, ptr %master.addr, align 8
  store ptr %creds, ptr %creds.addr, align 8
  store ptr %hostname, ptr %hostname.addr, align 8
  %0 = load ptr, ptr %ioc.addr, align 8
  %1 = load ptr, ptr %master.addr, align 8
  %2 = load ptr, ptr %creds.addr, align 8
  %3 = load ptr, ptr %hostname.addr, align 8
  call void @_nocheck__trace_qio_channel_tls_new_client(ptr noundef %0, ptr noundef %1, ptr noundef %2, ptr noundef %3)
  ret void
}

; Function Attrs: nounwind sspstrong uwtable
define internal ptr @QIO_CHANNEL(ptr noundef %obj) #0 {
entry:
  %obj.addr = alloca ptr, align 8
  store ptr %obj, ptr %obj.addr, align 8
  %0 = load ptr, ptr %obj.addr, align 8
  %call = call ptr @object_dynamic_cast_assert(ptr noundef %0, ptr noundef @.str.2, ptr noundef @.str.3, i32 noundef 30, ptr noundef @__func__.QIO_CHANNEL)
  ret ptr %call
}

; Function Attrs: nounwind sspstrong uwtable
define internal ptr @QIO_CHANNEL_TLS(ptr noundef %obj) #0 {
entry:
  %obj.addr = alloca ptr, align 8
  store ptr %obj, ptr %obj.addr, align 8
  %0 = load ptr, ptr %obj.addr, align 8
  %call = call ptr @object_dynamic_cast_assert(ptr noundef %0, ptr noundef @.str, ptr noundef @.str.1, i32 noundef 30, ptr noundef @__func__.QIO_CHANNEL_TLS)
  ret ptr %call
}

; Function Attrs: nounwind sspstrong uwtable
define dso_local ptr @qio_channel_tls_new_client(ptr noundef %master, ptr noundef %creds, ptr noundef %hostname, ptr noundef %errp) #0 {
entry:
  %retval = alloca ptr, align 8
  %master.addr = alloca ptr, align 8
  %creds.addr = alloca ptr, align 8
  %hostname.addr = alloca ptr, align 8
  %errp.addr = alloca ptr, align 8
  %tioc = alloca ptr, align 8
  %ioc = alloca ptr, align 8
  store ptr %master, ptr %master.addr, align 8
  store ptr %creds, ptr %creds.addr, align 8
  store ptr %hostname, ptr %hostname.addr, align 8
  store ptr %errp, ptr %errp.addr, align 8
  %call = call ptr @object_new(ptr noundef @.str)
  %call1 = call ptr @QIO_CHANNEL_TLS(ptr noundef %call)
  store ptr %call1, ptr %tioc, align 8
  %0 = load ptr, ptr %tioc, align 8
  %call2 = call ptr @QIO_CHANNEL(ptr noundef %0)
  store ptr %call2, ptr %ioc, align 8
  %1 = load ptr, ptr %master.addr, align 8
  %2 = load ptr, ptr %tioc, align 8
  %master3 = getelementptr inbounds %struct.QIOChannelTLS, ptr %2, i32 0, i32 1
  store ptr %1, ptr %master3, align 8
  %3 = load ptr, ptr %master.addr, align 8
  %call4 = call zeroext i1 @qio_channel_has_feature(ptr noundef %3, i32 noundef 1)
  br i1 %call4, label %if.then, label %if.end

if.then:                                          ; preds = %entry
  %4 = load ptr, ptr %ioc, align 8
  call void @qio_channel_set_feature(ptr noundef %4, i32 noundef 1)
  br label %if.end

if.end:                                           ; preds = %if.then, %entry
  %5 = load ptr, ptr %master.addr, align 8
  %call5 = call ptr @object_ref(ptr noundef %5)
  %6 = load ptr, ptr %creds.addr, align 8
  %7 = load ptr, ptr %hostname.addr, align 8
  %8 = load ptr, ptr %errp.addr, align 8
  %call6 = call ptr @qcrypto_tls_session_new(ptr noundef %6, ptr noundef %7, ptr noundef null, i32 noundef 0, ptr noundef %8)
  %9 = load ptr, ptr %tioc, align 8
  %session = getelementptr inbounds %struct.QIOChannelTLS, ptr %9, i32 0, i32 2
  store ptr %call6, ptr %session, align 8
  %10 = load ptr, ptr %tioc, align 8
  %session7 = getelementptr inbounds %struct.QIOChannelTLS, ptr %10, i32 0, i32 2
  %11 = load ptr, ptr %session7, align 8
  %tobool = icmp ne ptr %11, null
  br i1 %tobool, label %if.end9, label %if.then8

if.then8:                                         ; preds = %if.end
  br label %error

if.end9:                                          ; preds = %if.end
  %12 = load ptr, ptr %tioc, align 8
  %session10 = getelementptr inbounds %struct.QIOChannelTLS, ptr %12, i32 0, i32 2
  %13 = load ptr, ptr %session10, align 8
  %14 = load ptr, ptr %tioc, align 8
  call void @qcrypto_tls_session_set_callbacks(ptr noundef %13, ptr noundef @qio_channel_tls_write_handler, ptr noundef @qio_channel_tls_read_handler, ptr noundef %14)
  %15 = load ptr, ptr %tioc, align 8
  %16 = load ptr, ptr %master.addr, align 8
  %17 = load ptr, ptr %creds.addr, align 8
  %18 = load ptr, ptr %hostname.addr, align 8
  call void @trace_qio_channel_tls_new_client(ptr noundef %15, ptr noundef %16, ptr noundef %17, ptr noundef %18)
  %19 = load ptr, ptr %tioc, align 8
  store ptr %19, ptr %retval, align 8
  br label %return

error:                                            ; preds = %if.then8
  %20 = load ptr, ptr %tioc, align 8
  call void @object_unref(ptr noundef %20)
  store ptr null, ptr %retval, align 8
  br label %return

return:                                           ; preds = %error, %if.end9
  %21 = load ptr, ptr %retval, align 8
  ret ptr %21
}