; Function Attrs: nounwind sspstrong uwtable
define dso_local noundef ptr @qio_channel_tls_new_client(ptr noundef %master, ptr noundef %creds, ptr noundef %hostname, ptr noundef %errp) local_unnamed_addr #0 {
entry:
  %_now.i.i = alloca %struct.timeval, align 8
  %call = tail call ptr @object_new(ptr noundef nonnull @.str) #8
  %call.i = tail call ptr @object_dynamic_cast_assert(ptr noundef %call, ptr noundef nonnull @.str, ptr noundef nonnull @.str.1, i32 noundef 30, ptr noundef nonnull @__func__.QIO_CHANNEL_TLS) #8
  %call.i14 = tail call ptr @object_dynamic_cast_assert(ptr noundef %call.i, ptr noundef nonnull @.str.2, ptr noundef nonnull @.str.3, i32 noundef 30, ptr noundef nonnull @__func__.QIO_CHANNEL) #8
  %master3 = getelementptr inbounds nuw i8, ptr %call.i, i64 96
  store ptr %master, ptr %master3, align 8
  %call4 = tail call zeroext i1 @qio_channel_has_feature(ptr noundef %master, i32 noundef 1) #8
  br i1 %call4, label %if.then, label %if.end

if.then:                                          ; preds = %entry
  tail call void @qio_channel_set_feature(ptr noundef %call.i14, i32 noundef 1) #8
  br label %if.end

if.end:                                           ; preds = %if.then, %entry
  %call5 = tail call ptr @object_ref(ptr noundef %master) #8
  %call6 = tail call ptr @qcrypto_tls_session_new(ptr noundef %creds, ptr noundef %hostname, ptr noundef null, i32 noundef 0, ptr noundef %errp) #8
  %session = getelementptr inbounds nuw i8, ptr %call.i, i64 104
  store ptr %call6, ptr %session, align 8
  %tobool.not = icmp eq ptr %call6, null
  br i1 %tobool.not, label %error, label %if.end9

if.end9:                                          ; preds = %if.end
  tail call void @qcrypto_tls_session_set_callbacks(ptr noundef nonnull %call6, ptr noundef nonnull @qio_channel_tls_write_handler, ptr noundef nonnull @qio_channel_tls_read_handler, ptr noundef nonnull %call.i) #8
  call void @llvm.lifetime.start.p0(i64 16, ptr nonnull %_now.i.i)
  %0 = load i32, ptr @trace_events_enabled_count, align 4
  %tobool.i.i = icmp ne i32 %0, 0
  %1 = load i16, ptr @_TRACE_QIO_CHANNEL_TLS_NEW_CLIENT_DSTATE, align 2
  %tobool4.i.i = icmp ne i16 %1, 0
  %or.cond.i.i = select i1 %tobool.i.i, i1 %tobool4.i.i, i1 false
  br i1 %or.cond.i.i, label %land.lhs.true5.i.i, label %trace_qio_channel_tls_new_client.exit

land.lhs.true5.i.i:                               ; preds = %if.end9
  %2 = load i32, ptr @qemu_loglevel, align 4
  %and.i.i.i = and i32 %2, 32768
  %cmp.i.not.i.i = icmp eq i32 %and.i.i.i, 0
  br i1 %cmp.i.not.i.i, label %trace_qio_channel_tls_new_client.exit, label %if.then.i.i

if.then.i.i:                                      ; preds = %land.lhs.true5.i.i
  %3 = load i8, ptr @message_with_timestamp, align 1
  %tobool7.i.i = trunc i8 %3 to i1
  br i1 %tobool7.i.i, label %if.then8.i.i, label %if.else.i.i

if.then8.i.i:                                     ; preds = %if.then.i.i
  %call9.i.i = call i32 @gettimeofday(ptr noundef nonnull %_now.i.i, ptr noundef null) #8
  %call10.i.i = tail call i32 @qemu_get_thread_id() #8
  %4 = load i64, ptr %_now.i.i, align 8
  %tv_usec.i.i = getelementptr inbounds nuw i8, ptr %_now.i.i, i64 8
  %5 = load i64, ptr %tv_usec.i.i, align 8
  tail call void (ptr, ...) @qemu_log(ptr noundef nonnull @.str.6, i32 noundef %call10.i.i, i64 noundef %4, i64 noundef %5, ptr noundef nonnull %call.i, ptr noundef %master, ptr noundef %creds, ptr noundef %hostname) #8
  br label %trace_qio_channel_tls_new_client.exit

if.else.i.i:                                      ; preds = %if.then.i.i
  tail call void (ptr, ...) @qemu_log(ptr noundef nonnull @.str.7, ptr noundef nonnull %call.i, ptr noundef %master, ptr noundef %creds, ptr noundef %hostname) #8
  br label %trace_qio_channel_tls_new_client.exit

trace_qio_channel_tls_new_client.exit:            ; preds = %if.end9, %land.lhs.true5.i.i, %if.then8.i.i, %if.else.i.i
  call void @llvm.lifetime.end.p0(i64 16, ptr nonnull %_now.i.i)
  br label %return

error:                                            ; preds = %if.end
  tail call void @object_unref(ptr noundef nonnull %call.i) #8
  br label %return

return:                                           ; preds = %error, %trace_qio_channel_tls_new_client.exit
  %retval.0 = phi ptr [ %call.i, %trace_qio_channel_tls_new_client.exit ], [ null, %error ]
  ret ptr %retval.0
}